Certificate:
    Data:
        Version: 3 (0x2)
        Serial Number: 1 (0x1)
        Signature Algorithm: sha256WithRSAEncryption
        Issuer: C=RU, ST=SPB, L=SPB, O=Skillfactory, OU=DevOps, CN=Test Root CA
        Validity
            Not Before: Jul 18 10:20:14 2021 GMT
            Not After : Jul 18 10:20:14 2022 GMT
        Subject: CN=nginx-01
        Subject Public Key Info:
            Public Key Algorithm: rsaEncryption
                RSA Public-Key: (4096 bit)
                Modulus:
                    00:a9:0c:53:be:a9:45:17:25:a5:eb:3a:7f:45:a7:
                    90:35:52:a6:08:ae:83:e3:b7:2f:33:9b:3c:13:f9:
                    82:aa:43:49:81:0b:d1:60:ef:95:24:5f:9a:79:94:
                    81:24:5b:5d:07:9b:d8:f4:e0:95:5f:ed:10:1c:69:
                    6d:cb:fa:a9:dd:47:b6:aa:e0:6c:75:9a:ef:b4:59:
                    96:ad:2f:ec:cc:e3:c5:60:ea:a6:53:5c:09:61:d5:
                    37:b5:cb:e4:a9:38:e9:0f:89:fc:07:49:ed:19:62:
                    57:da:27:fa:0d:44:da:da:93:6b:14:ed:e6:eb:24:
                    35:7c:37:60:5b:75:5d:85:f7:31:44:cb:52:77:24:
                    21:09:27:b1:ab:5e:6c:23:66:f4:98:7d:44:98:e6:
                    cb:a1:fd:4a:95:ea:36:d6:cd:d3:e5:06:36:ce:0c:
                    97:cb:5a:01:06:ba:06:90:61:21:e4:e9:31:6b:98:
                    b6:f5:c8:df:46:70:17:e0:98:b0:f5:46:ea:50:38:
                    93:36:a5:f2:e0:56:f3:89:e4:76:04:6f:62:97:be:
                    e5:e0:a0:12:b5:e8:e5:50:c0:24:90:81:a1:b9:07:
                    c5:46:c9:4b:12:ed:4f:09:f4:e3:d7:6e:7c:69:54:
                    e8:df:8d:89:d7:a3:91:89:fc:91:34:57:58:ee:8d:
                    e3:1f:86:28:72:d2:eb:9e:d9:3c:21:7c:16:d1:6f:
                    b5:00:ce:12:65:3f:a6:83:c4:11:f9:8a:84:17:b9:
                    ff:ba:e0:26:e6:7a:f3:25:93:9a:1f:3b:57:52:ce:
                    c4:05:45:cf:9d:38:f0:62:ff:94:9c:f1:b4:1f:a9:
                    47:e5:ba:b0:8b:58:57:90:01:c5:06:e0:25:da:9e:
                    e7:5a:b2:63:84:ee:9c:33:e4:ce:cc:9e:48:4a:f0:
                    0a:c0:34:c1:cc:c5:b5:05:35:a6:36:0b:31:be:1a:
                    a2:ff:8f:d9:3b:a5:6f:7f:f6:51:8d:7e:c5:7b:54:
                    17:2f:eb:d3:63:0e:7b:3b:a3:48:41:8c:51:9a:ea:
                    5a:de:60:d2:76:ea:e5:d1:4d:33:46:bd:29:90:b9:
                    48:84:b3:52:f0:e8:a0:62:33:09:81:cd:a4:3d:27:
                    ed:28:9e:a9:bf:1b:7c:84:c5:25:89:1e:93:13:bd:
                    22:e2:b3:43:96:93:c7:23:0a:07:f7:ee:3e:34:3d:
                    f3:dc:7a:6e:0f:c8:ab:99:03:03:f6:b0:21:79:43:
                    c0:b0:11:2a:b4:c7:b5:29:a6:61:e1:9c:c8:79:eb:
                    39:d4:e1:8f:48:90:2a:67:94:38:99:23:d4:9a:d1:
                    a7:d3:55:93:bf:21:a0:5e:d4:70:24:e2:36:45:30:
                    a8:45:93
                Exponent: 65537 (0x10001)
        X509v3 extensions:
            X509v3 Subject Alternative Name: 
                IP Address:172.20.0.3, IP Address:127.0.0.1, DNS:nginx-01, DNS:localhost
            X509v3 Extended Key Usage: 
                TLS Web Server Authentication
    Signature Algorithm: sha256WithRSAEncryption
         a8:5d:e3:13:65:40:42:42:0c:94:0c:ec:ee:7a:67:d2:b1:ac:
         4a:ed:88:75:22:35:66:4b:26:99:dd:b7:cc:3b:0a:a1:f4:34:
         61:3a:98:84:c7:66:c4:7f:5e:ec:ba:44:69:68:f0:02:ce:32:
         74:0d:52:54:94:78:88:6c:09:8c:48:6a:43:58:c3:6b:a8:e2:
         bb:a9:16:18:e6:e1:6a:b8:dd:9c:c8:59:c3:d2:df:49:02:cb:
         ee:60:dc:1b:91:86:49:b5:a7:43:a8:6b:62:2a:54:e3:b6:ee:
         4c:82:9d:3a:77:d9:19:48:2c:63:1b:66:b0:33:d7:15:77:8e:
         f9:06:53:dd:27:da:af:af:11:0a:fa:33:f9:3b:45:74:03:68:
         7b:57:59:5f:86:0a:eb:91:f5:d8:ef:1a:bc:dc:0d:5a:32:be:
         7d:94:39:42:64:e1:9d:25:d1:2a:e4:12:50:02:e3:db:39:11:
         10:93:21:09:22:32:98:91:99:c8:c3:c8:22:b1:8a:00:6f:8d:
         a6:cd:4e:05:d4:e3:55:d8:ff:d5:6a:f0:10:c0:14:9a:8e:7b:
         5d:07:9e:9a:bb:06:d8:cb:e6:25:07:c5:42:1c:b7:6c:f2:a2:
         b4:31:fa:8e:cc:8c:fa:17:00:c3:9c:6b:4b:72:9d:56:ce:76:
         f3:3e:c5:ea:9e:0b:29:a5:15:9f:9d:91:ef:66:72:a8:0a:b8:
         68:e1:52:20:30:68:3a:4d:1a:4c:c4:4d:f8:57:f9:44:3a:a5:
         fa:38:73:47:18:e0:84:dd:d6:27:0f:17:2d:98:f8:05:52:4a:
         4b:4a:3a:1a:26:23:92:a2:bb:92:24:49:d8:9d:69:5d:cd:bf:
         5f:ef:dd:3e:ca:4a:7b:ee:e9:b9:f4:33:7d:e0:14:af:b4:f1:
         42:e3:08:ba:42:22:22:be:11:5a:6a:6e:81:b1:47:47:ed:78:
         b0:f3:03:03:08:b4:8a:c4:d5:c1:fb:c8:94:14:67:3f:9e:71:
         4c:fc:2c:2a:68:4f:9f:01:1d:4b:9c:4f:d5:6c:0c:04:97:c0:
         05:a5:99:05:30:82:3c:9a:aa:f0:24:2d:cd:ab:1d:d5:e2:42:
         55:5c:c6:c1:12:24:6b:7f:5e:d7:9e:25:85:9b:f0:ed:3f:1a:
         cc:40:c8:17:4a:d7:60:fe:e3:3e:9b:ee:35:09:cf:97:e2:21:
         1c:77:a2:5c:a5:d0:34:a1:78:54:c5:47:ba:16:9e:c7:eb:11:
         8b:52:37:f6:b8:07:ce:fb:5c:d0:01:82:a6:63:ac:fa:ad:3d:
         dc:1c:3f:8e:02:82:e6:63:21:43:de:40:9e:3c:46:13:9d:b9:
         85:12:5a:92:60:5c:e9:45
-----BEGIN CERTIFICATE-----
MIIFOTCCAyGgAwIBAgIBATANBgkqhkiG9w0BAQsFADBoMQswCQYDVQQGEwJSVTEM
MAoGA1UECAwDU1BCMQwwCgYDVQQHDANTUEIxFTATBgNVBAoMDFNraWxsZmFjdG9y
eTEPMA0GA1UECwwGRGV2T3BzMRUwEwYDVQQDDAxUZXN0IFJvb3QgQ0EwHhcNMjEw
NzE4MTAyMDE0WhcNMjIwNzE4MTAyMDE0WjATMREwDwYDVQQDDAhuZ2lueC0wMTCC
AiIwDQYJKoZIhvcNAQEBBQADggIPADCCAgoCggIBAKkMU76pRRclpes6f0WnkDVS
pgiug+O3LzObPBP5gqpDSYEL0WDvlSRfmnmUgSRbXQeb2PTglV/tEBxpbcv6qd1H
tqrgbHWa77RZlq0v7MzjxWDqplNcCWHVN7XL5Kk46Q+J/AdJ7RliV9on+g1E2tqT
axTt5uskNXw3YFt1XYX3MUTLUnckIQknsatebCNm9Jh9RJjmy6H9SpXqNtbN0+UG
Ns4Ml8taAQa6BpBhIeTpMWuYtvXI30ZwF+CYsPVG6lA4kzal8uBW84nkdgRvYpe+
5eCgErXo5VDAJJCBobkHxUbJSxLtTwn049dufGlU6N+NidejkYn8kTRXWO6N4x+G
KHLS657ZPCF8FtFvtQDOEmU/poPEEfmKhBe5/7rgJuZ68yWTmh87V1LOxAVFz504
8GL/lJzxtB+pR+W6sItYV5ABxQbgJdqe51qyY4TunDPkzsyeSErwCsA0wczFtQU1
pjYLMb4aov+P2Tulb3/2UY1+xXtUFy/r02MOezujSEGMUZrqWt5g0nbq5dFNM0a9
KZC5SISzUvDooGIzCYHNpD0n7Sieqb8bfITFJYkekxO9IuKzQ5aTxyMKB/fuPjQ9
89x6bg/Iq5kDA/awIXlDwLARKrTHtSmmYeGcyHnrOdThj0iQKmeUOJkj1JrRp9NV
k78hoF7UcCTiNkUwqEWTAgMBAAGjQzBBMCoGA1UdEQQjMCGHBKwUAAOHBH8AAAGC
CG5naW54LTAxgglsb2NhbGhvc3QwEwYDVR0lBAwwCgYIKwYBBQUHAwEwDQYJKoZI
hvcNAQELBQADggIBAKhd4xNlQEJCDJQM7O56Z9KxrErtiHUiNWZLJpndt8w7CqH0
NGE6mITHZsR/Xuy6RGlo8ALOMnQNUlSUeIhsCYxIakNYw2uo4rupFhjm4Wq43ZzI
WcPS30kCy+5g3BuRhkm1p0Ooa2IqVOO27kyCnTp32RlILGMbZrAz1xV3jvkGU90n
2q+vEQr6M/k7RXQDaHtXWV+GCuuR9djvGrzcDVoyvn2UOUJk4Z0l0SrkElAC49s5
ERCTIQkiMpiRmcjDyCKxigBvjabNTgXU41XY/9Vq8BDAFJqOe10Hnpq7BtjL5iUH
xUIct2zyorQx+o7MjPoXAMOca0tynVbOdvM+xeqeCymlFZ+dke9mcqgKuGjhUiAw
aDpNGkzETfhX+UQ6pfo4c0cY4ITd1icPFy2Y+AVSSktKOhomI5Kiu5IkSdidaV3N
v1/v3T7KSnvu6bn0M33gFK+08ULjCLpCIiK+EVpqboGxR0fteLDzAwMItIrE1cH7
yJQUZz+ecUz8LCpoT58BHUucT9VsDASXwAWlmQUwgjyaqvAkLc2rHdXiQlVcxsES
JGt/XteeJYWb8O0/GsxAyBdK12D+4z6b7jUJz5fiIRx3olyl0DSheFTFR7oWnsfr
EYtSN/a4B877XNABgqZjrPqtPdwcP44CguZjIUPeQJ48RhOduYUSWpJgXOlF
-----END CERTIFICATE-----


# Root ca
-----BEGIN CERTIFICATE-----
MIIFsTCCA5mgAwIBAgIUC4QLI6z8OMNGMcSDIJq2JMn0smAwDQYJKoZIhvcNAQEL
BQAwaDELMAkGA1UEBhMCUlUxDDAKBgNVBAgMA1NQQjEMMAoGA1UEBwwDU1BCMRUw
EwYDVQQKDAxTa2lsbGZhY3RvcnkxDzANBgNVBAsMBkRldk9wczEVMBMGA1UEAwwM
VGVzdCBSb290IENBMB4XDTIxMDcxODEwMjAxNFoXDTMxMDcxNjEwMjAxNFowaDEL
MAkGA1UEBhMCUlUxDDAKBgNVBAgMA1NQQjEMMAoGA1UEBwwDU1BCMRUwEwYDVQQK
DAxTa2lsbGZhY3RvcnkxDzANBgNVBAsMBkRldk9wczEVMBMGA1UEAwwMVGVzdCBS
b290IENBMIICIjANBgkqhkiG9w0BAQEFAAOCAg8AMIICCgKCAgEA1NVt4CHom8/p
29qkxzDyXCVSL6QTltT/f4Ug3pZ9Ly3pkSztspHPMvb247C0K/ps0gsHuJDZZB5p
y2cITZ3GbaDGd8it/+WVImhkpVCuCxA74mbGgqYE0WM0ujptER3yQqAiox7gXt73
4ed7xiGG/O+QdIIt/BQGWsLXeRNy6OhkqL0lV10vgRNPXYaylrjT8Uzl8qVRui1A
quFeoowpIk6NKplqE+DlgMsVDn3VMnY+X/JRgP27TZPnXEHEvCTn1zDrNQ1EeN1k
ZpnzmpJhtSfGNe7xZFHBnVIja7PEJonEpDPWT6vwLeZ3/7b8w1S0ouvWOt6sdIcQ
iTqNWyoMT7ccr/0odaufrGEeR5zy4fsG6PBNCRs9ye7Ov1C/4A4Z8Bacm6h2tt1L
iOlIWap25AVGnXfsngW7UzZ7o9Ms4yaA8tY+vRaFFeEJmiYBTrYnRNZ2PoHZoiQA
VyHbwZ3Qw0KonRgCGI+DRj/pIbCSORte2yOluYwb2VoxCijlU/8BJka8SNaOLgR6
K5ghUQ/9Rg/ATH9IJWqi8K6lyne6plqZTzD9/D/ARUEbVtGwmgdWaHeVW3pzozeZ
CbUwpSwxBpj1Bzi3qpe7g6+gva0xf9VLb2bkpbfCYUSGoPCHIQ6z1megnpBR3/AT
Eaxii0AheQGqXL5OU7UU4s5nBgKn+D8CAwEAAaNTMFEwHQYDVR0OBBYEFLituc8F
76UG7jB/P/LM5BdkDBL/MB8GA1UdIwQYMBaAFLituc8F76UG7jB/P/LM5BdkDBL/
MA8GA1UdEwEB/wQFMAMBAf8wDQYJKoZIhvcNAQELBQADggIBACglb9CKZmWesh8i
2pnziAHXKbIuJ9qdYF1/lSu0Umac8wXLN0Mu9+nJ+V607oGUJzdSVfeVWHZCt2E0
4vhzStX/Ch7KVden1v6DrdUJ8ktp2lLG7NujvbT+1LYJOboq2TyyIb735P/VWmCs
+PyG8H8I7aYSQBFvUpIuRo7Gt6i79pDH5/khPlDfaUt1tBOVSnEEkpnyKcatGuZJ
lW0He5QsXTSlNmKC3ElhcHpLBJbhb8O97Px5iXsgM8+3KjUATi540F83DlF4YtAt
RXgNJl0ja5hCKbUvssQ8pU3g3SALQniIuT8fwUE6Iewe4n7f+6IjaY44SMivESWc
KG7dOdTr8FPkMWcQgTbp/b1ocrdViDPSxmy9SW3JxDTmlYuqJ/9WvcxlRCbjRXtn
hs9BBmcgkL7gPAB0mJMd4OqoPskJQ6UrbuO5swElVvIwL9YmKWelwSkjwq7wlEhb
NDRhUYfJHNBNijF2+NM1nEp8t33Tuv81bvUWvsr5Z3rJTyxPeAhdKwmmUQ2AtASv
m3p/+kaEFUPtly1UzK04YXFudDJHe3LX+bSu5UrrzWkIbR+FvHPBj91BzIi3OHZK
IWqGv9P6y+EDXCqmZAkOQHpXKTHMv2sb37MqACQukA0g/NCPNl3nzne4DKhdKEMR
y7w0vyhPunUbkXRqyA0C10wprLn6
-----END CERTIFICATE-----
